#include <math.h>
#include <stdio.h>
#include <stdlib.h>
#include <string.h>

int main()
{
	int a[100]={-1},*p,*q,n,m,i,k=0;
	scanf("%d %d\n",&n,&m);
	for(i=0;i<n;i++)
		scanf("%d",&a[i]);
	p=a;
	q=p+n-m+1;
	printf("%d",*(p+n-m));	
	while(k<n-1)
	{
		if(*q==0)q=p;
		printf(" %d",*q);
		k++;
		q++;		
	}
	return 0;
}